target datalayout = "e-m:e-p270:32:32-p271:32:32-p272:64:64-i64:64-i128:128-f80:128-n8:16:32:64-S128"
target triple = "x86_64-pc-linux-gnu"

%struct.strbuf = type { i64, i64, ptr }
%struct.object_id = type { [32 x i8], i32 }

@__const.grab_blob.buf = private unnamed_addr constant %struct.strbuf { i64 0, i64 0, ptr @strbuf_slopbuf }, align 8
@.str.17 = private unnamed_addr constant [22 x i8] c"Subproject commit %s\0A\00", align 1
@.str.18 = private unnamed_addr constant [18 x i8] c"unable to read %s\00", align 1
@.str.19 = private unnamed_addr constant [27 x i8] c"object '%s' is not a blob!\00", align 1
@is_null_oid.null_hash = internal constant [32 x i8] zeroinitializer, align 16

; Function Attrs: inlinehint nounwind uwtable
define internal i32 @is_null_oid(ptr noundef %0) #5 {
  %2 = alloca ptr, align 8
  store ptr %0, ptr %2, align 8, !tbaa !146
  %3 = load ptr, ptr %2, align 8, !tbaa !146
  %4 = getelementptr inbounds nuw %struct.object_id, ptr %3, i32 0, i32 0
  %5 = getelementptr inbounds [32 x i8], ptr %4, i64 0, i64 0
  %6 = call i32 @memcmp(ptr noundef %5, ptr noundef @is_null_oid.null_hash, i64 noundef 32) #11
  %7 = icmp ne i32 %6, 0
  %8 = xor i1 %7, true
  %9 = zext i1 %8 to i32
  ret i32 %9
}

; Function Attrs: nounwind uwtable
define internal ptr @grab_blob(ptr noundef %0, ptr noundef %1, i32 noundef %2, ptr noundef %3, ptr noundef %4, ptr noundef %5) #0 {
  %7 = alloca ptr, align 8
  %8 = alloca ptr, align 8
  %9 = alloca ptr, align 8
  %10 = alloca i32, align 4
  %11 = alloca ptr, align 8
  %12 = alloca ptr, align 8
  %13 = alloca ptr, align 8
  %14 = alloca ptr, align 8
  %15 = alloca i32, align 4
  %16 = alloca %struct.strbuf, align 8
  %17 = alloca i32, align 4
  %18 = alloca ptr, align 8
  store ptr %0, ptr %8, align 8, !tbaa !110
  store ptr %1, ptr %9, align 8, !tbaa !146
  store i32 %2, ptr %10, align 4, !tbaa !9
  store ptr %3, ptr %11, align 8, !tbaa !210
  store ptr %4, ptr %12, align 8, !tbaa !81
  store ptr %5, ptr %13, align 8, !tbaa !29
  call void @llvm.lifetime.start.p0(i64 8, ptr %14) #9
  call void @llvm.lifetime.start.p0(i64 4, ptr %15) #9
  %19 = load i32, ptr %10, align 4, !tbaa !9
  %20 = and i32 %19, 61440
  %21 = icmp eq i32 %20, 57344
  br i1 %21, label %22, label %29

22:                                               ; preds = %6
  call void @llvm.lifetime.start.p0(i64 24, ptr %16) #9
  call void @llvm.memcpy.p0.p0.i64(ptr align 8 %16, ptr align 8 @__const.grab_blob.buf, i64 24, i1 false)
  %23 = load ptr, ptr %9, align 8, !tbaa !146
  %24 = call ptr @oid_to_hex(ptr noundef %23)
  call void (ptr, ptr, ...) @strbuf_addf(ptr noundef %16, ptr noundef @.str.17, ptr noundef %24)
  %25 = getelementptr inbounds nuw %struct.strbuf, ptr %16, i32 0, i32 1
  %26 = load i64, ptr %25, align 8, !tbaa !109
  %27 = load ptr, ptr %11, align 8, !tbaa !210
  store i64 %26, ptr %27, align 8, !tbaa !84
  %28 = call ptr @strbuf_detach(ptr noundef %16, ptr noundef null)
  store ptr %28, ptr %14, align 8, !tbaa !29
  call void @llvm.lifetime.end.p0(i64 24, ptr %16) #9
  br label %72

29:                                               ; preds = %6
  %30 = load ptr, ptr %9, align 8, !tbaa !146
  %31 = call i32 @is_null_oid(ptr noundef %30)
  %32 = icmp ne i32 %31, 0
  br i1 %32, label %33, label %36

33:                                               ; preds = %29
  %34 = load ptr, ptr %11, align 8, !tbaa !210
  store i64 0, ptr %34, align 8, !tbaa !84
  %35 = call ptr @xcalloc(i64 noundef 1, i64 noundef 1)
  store ptr %35, ptr %7, align 8
  store i32 1, ptr %17, align 4
  br label %74

36:                                               ; preds = %29
  %37 = load ptr, ptr %12, align 8, !tbaa !81
  %38 = icmp ne ptr %37, null
  br i1 %38, label %39, label %52

39:                                               ; preds = %36
  call void @llvm.lifetime.start.p0(i64 8, ptr %18) #9
  %40 = load ptr, ptr %13, align 8, !tbaa !29
  %41 = call ptr @alloc_filespec(ptr noundef %40)
  store ptr %41, ptr %18, align 8, !tbaa !111
  %42 = load ptr, ptr %18, align 8, !tbaa !111
  %43 = load ptr, ptr %9, align 8, !tbaa !146
  %44 = load i32, ptr %10, align 4, !tbaa !9
  %45 = trunc i32 %44 to i16
  call void @fill_filespec(ptr noundef %42, ptr noundef %43, i32 noundef 1, i16 noundef zeroext %45)
  %46 = load ptr, ptr %8, align 8, !tbaa !110
  %47 = load ptr, ptr %12, align 8, !tbaa !81
  %48 = load ptr, ptr %18, align 8, !tbaa !111
  %49 = call i64 @fill_textconv(ptr noundef %46, ptr noundef %47, ptr noundef %48, ptr noundef %14)
  %50 = load ptr, ptr %11, align 8, !tbaa !210
  store i64 %49, ptr %50, align 8, !tbaa !84
  %51 = load ptr, ptr %18, align 8, !tbaa !111
  call void @free_filespec(ptr noundef %51)
  call void @llvm.lifetime.end.p0(i64 8, ptr %18) #9
  br label %70

52:                                               ; preds = %36
  %53 = load ptr, ptr %8, align 8, !tbaa !110
  %54 = load ptr, ptr %9, align 8, !tbaa !146
  %55 = load ptr, ptr %11, align 8, !tbaa !210
  %56 = call ptr @repo_read_object_file(ptr noundef %53, ptr noundef %54, ptr noundef %15, ptr noundef %55)
  store ptr %56, ptr %14, align 8, !tbaa !29
  %57 = load ptr, ptr %14, align 8, !tbaa !29
  %58 = icmp ne ptr %57, null
  br i1 %58, label %63, label %59

59:                                               ; preds = %52
  %60 = call ptr @_(ptr noundef @.str.18)
  %61 = load ptr, ptr %9, align 8, !tbaa !146
  %62 = call ptr @oid_to_hex(ptr noundef %61)
  call void (ptr, ...) @die(ptr noundef %60, ptr noundef %62) #10
  unreachable

63:                                               ; preds = %52
  %64 = load i32, ptr %15, align 4, !tbaa !9
  %65 = icmp ne i32 %64, 3
  br i1 %65, label %66, label %69

66:                                               ; preds = %63
  %67 = load ptr, ptr %9, align 8, !tbaa !146
  %68 = call ptr @oid_to_hex(ptr noundef %67)
  call void (ptr, ...) @die(ptr noundef @.str.19, ptr noundef %68) #10
  unreachable

69:                                               ; preds = %63
  br label %70

70:                                               ; preds = %69, %39
  br label %71

71:                                               ; preds = %70
  br label %72

72:                                               ; preds = %71, %22
  %73 = load ptr, ptr %14, align 8, !tbaa !29
  store ptr %73, ptr %7, align 8
  store i32 1, ptr %17, align 4
  br label %74

74:                                               ; preds = %72, %33
  call void @llvm.lifetime.end.p0(i64 4, ptr %15) #9
  call void @llvm.lifetime.end.p0(i64 8, ptr %14) #9
  %75 = load ptr, ptr %7, align 8
  ret ptr %75
}