; Function Attrs: nounwind uwtable
define internal fastcc ptr @grab_blob(ptr noundef %0, ptr noundef %1, i32 noundef %2, ptr noundef nonnull %3, ptr noundef %4, ptr noundef %5) unnamed_addr #0 {
  %7 = alloca ptr, align 8
  %8 = alloca i32, align 4
  %9 = alloca %struct.strbuf, align 8
  call void @llvm.lifetime.start.p0(i64 8, ptr nonnull %7) #15
  call void @llvm.lifetime.start.p0(i64 4, ptr nonnull %8) #15
  %10 = and i32 %2, 61440
  %11 = icmp eq i32 %10, 57344
  br i1 %11, label %12, label %17

12:                                               ; preds = %6
  call void @llvm.lifetime.start.p0(i64 24, ptr nonnull %9) #15
  call void @llvm.memcpy.p0.p0.i64(ptr noundef nonnull align 8 dereferenceable(24) %9, ptr noundef nonnull align 8 dereferenceable(24) @__const.grab_blob.buf, i64 24, i1 false)
  %13 = tail call ptr @oid_to_hex(ptr noundef %1) #15
  call void (ptr, ptr, ...) @strbuf_addf(ptr noundef nonnull %9, ptr noundef nonnull @.str.17, ptr noundef %13) #15
  %14 = getelementptr inbounds nuw i8, ptr %9, i64 8
  %15 = load i64, ptr %14, align 8, !tbaa !101
  store i64 %15, ptr %3, align 8, !tbaa !76
  %16 = call ptr @strbuf_detach(ptr noundef nonnull %9, ptr noundef null) #15
  call void @llvm.lifetime.end.p0(i64 24, ptr nonnull %9) #15
  br label %34

17:                                               ; preds = %6
  %bcmp.i = tail call i32 @bcmp(ptr noundef nonnull readonly dereferenceable(32) %1, ptr noundef nonnull dereferenceable(32) @is_null_oid.null_hash, i64 32)
  %.not.i.not = icmp eq i32 %bcmp.i, 0
  br i1 %.not.i.not, label %18, label %20

18:                                               ; preds = %17
  store i64 0, ptr %3, align 8, !tbaa !76
  %19 = tail call ptr @xcalloc(i64 noundef 1, i64 noundef 1) #15
  br label %34

20:                                               ; preds = %17
  %.not21 = icmp eq ptr %4, null
  br i1 %.not21, label %25, label %21

21:                                               ; preds = %20
  %22 = tail call ptr @alloc_filespec(ptr noundef %5) #15
  %23 = trunc i32 %2 to i16
  tail call void @fill_filespec(ptr noundef %22, ptr noundef nonnull %1, i32 noundef 1, i16 noundef zeroext %23) #15
  %24 = call i64 @fill_textconv(ptr noundef %0, ptr noundef nonnull %4, ptr noundef %22, ptr noundef nonnull %7) #15
  store i64 %24, ptr %3, align 8, !tbaa !76
  call void @free_filespec(ptr noundef %22) #15
  %.pre = load ptr, ptr %7, align 8, !tbaa !73
  br label %34

25:                                               ; preds = %20
  %26 = call ptr @repo_read_object_file(ptr noundef %0, ptr noundef nonnull %1, ptr noundef nonnull %8, ptr noundef nonnull %3) #15
  %.not22 = icmp eq ptr %26, null
  br i1 %.not22, label %27, label %30

27:                                               ; preds = %25
  %28 = call fastcc ptr @_()
  %29 = call ptr @oid_to_hex(ptr noundef nonnull %1) #15
  call void (ptr, ...) @die(ptr noundef %28, ptr noundef %29) #16
  unreachable

30:                                               ; preds = %25
  %31 = load i32, ptr %8, align 4, !tbaa !67
  %.not23 = icmp eq i32 %31, 3
  br i1 %.not23, label %34, label %32

32:                                               ; preds = %30
  %33 = call ptr @oid_to_hex(ptr noundef nonnull %1) #15
  call void (ptr, ...) @die(ptr noundef nonnull @.str.19, ptr noundef %33) #16
  unreachable

34:                                               ; preds = %12, %21, %30, %18
  %.0 = phi ptr [ %19, %18 ], [ %26, %30 ], [ %.pre, %21 ], [ %16, %12 ]
  call void @llvm.lifetime.end.p0(i64 4, ptr nonnull %8) #15
  call void @llvm.lifetime.end.p0(i64 8, ptr nonnull %7) #15
  ret ptr %.0
}